; ModuleID = '42/1231.c'
source_filename = "42/1231.c"
target datalayout = "e-m:e-p270:32:32-p271:32:32-p272:64:64-i64:64-f80:128-n8:16:32:64-S128"
target triple = "x86_64-pc-linux-gnu"

@.str = private unnamed_addr constant [3 x i8] c"%d\00", align 1
@.str.1 = private unnamed_addr constant [4 x i8] c" %d\00", align 1

; Function Attrs: noinline nounwind uwtable
define dso_local i32 @main() #0 {
  %1 = alloca i32, align 4
  %2 = alloca i32, align 4
  %3 = alloca i32, align 4
  %4 = alloca i32, align 4
  %5 = alloca i32, align 4
  %6 = alloca i32*, align 8
  %7 = alloca i32, align 4
  %8 = alloca i32, align 4
  %9 = alloca i32, align 4
  %10 = alloca i32, align 4
  store i32 0, i32* %1, align 4
  store i32 0, i32* %4, align 4
  store i32 0, i32* %5, align 4
  %11 = call i32 (i8*, ...) @__isoc99_scanf(i8* getelementptr inbounds ([3 x i8], [3 x i8]* @.str, i64 0, i64 0), i32* %2)
  %12 = load i32, i32* %2, align 4
  %13 = sext i32 %12 to i64
  %14 = mul i64 %13, 4
  %15 = call noalias i8* @malloc(i64 %14) #3
  %16 = bitcast i8* %15 to i32*
  store i32* %16, i32** %6, align 8
  store i32 0, i32* %7, align 4
  br label %17

17:                                               ; preds = %27, %0
  %18 = load i32, i32* %7, align 4
  %19 = load i32, i32* %2, align 4
  %20 = icmp slt i32 %18, %19
  br i1 %20, label %21, label %30

21:                                               ; preds = %17
  %22 = load i32*, i32** %6, align 8
  %23 = load i32, i32* %7, align 4
  %24 = sext i32 %23 to i64
  %25 = getelementptr inbounds i32, i32* %22, i64 %24
  %26 = call i32 (i8*, ...) @__isoc99_scanf(i8* getelementptr inbounds ([3 x i8], [3 x i8]* @.str, i64 0, i64 0), i32* %25)
  br label %27

27:                                               ; preds = %21
  %28 = load i32, i32* %7, align 4
  %29 = add nsw i32 %28, 1
  store i32 %29, i32* %7, align 4
  br label %17

30:                                               ; preds = %17
  %31 = call i32 (i8*, ...) @__isoc99_scanf(i8* getelementptr inbounds ([3 x i8], [3 x i8]* @.str, i64 0, i64 0), i32* %3)
  store i32 0, i32* %8, align 4
  br label %32

32:                                               ; preds = %77, %30
  %33 = load i32, i32* %4, align 4
  %34 = load i32, i32* %5, align 4
  %35 = add nsw i32 %33, %34
  %36 = load i32, i32* %2, align 4
  %37 = icmp ne i32 %35, %36
  br i1 %37, label %38, label %80

38:                                               ; preds = %32
  %39 = load i32*, i32** %6, align 8
  %40 = load i32, i32* %8, align 4
  %41 = sext i32 %40 to i64
  %42 = getelementptr inbounds i32, i32* %39, i64 %41
  %43 = load i32, i32* %42, align 4
  %44 = load i32, i32* %3, align 4
  %45 = icmp eq i32 %43, %44
  br i1 %45, label %46, label %73

46:                                               ; preds = %38
  %47 = load i32, i32* %8, align 4
  store i32 %47, i32* %9, align 4
  br label %48

48:                                               ; preds = %65, %46
  %49 = load i32, i32* %9, align 4
  %50 = load i32, i32* %2, align 4
  %51 = load i32, i32* %4, align 4
  %52 = sub nsw i32 %50, %51
  %53 = icmp slt i32 %49, %52
  br i1 %53, label %54, label %68

54:                                               ; preds = %48
  %55 = load i32*, i32** %6, align 8
  %56 = load i32, i32* %9, align 4
  %57 = add nsw i32 %56, 1
  %58 = sext i32 %57 to i64
  %59 = getelementptr inbounds i32, i32* %55, i64 %58
  %60 = load i32, i32* %59, align 4
  %61 = load i32*, i32** %6, align 8
  %62 = load i32, i32* %9, align 4
  %63 = sext i32 %62 to i64
  %64 = getelementptr inbounds i32, i32* %61, i64 %63
  store i32 %60, i32* %64, align 4
  br label %65

65:                                               ; preds = %54
  %66 = load i32, i32* %9, align 4
  %67 = add nsw i32 %66, 1
  store i32 %67, i32* %9, align 4
  br label %48

68:                                               ; preds = %48
  %69 = load i32, i32* %4, align 4
  %70 = add nsw i32 %69, 1
  store i32 %70, i32* %4, align 4
  %71 = load i32, i32* %8, align 4
  %72 = add nsw i32 %71, -1
  store i32 %72, i32* %8, align 4
  br label %76

73:                                               ; preds = %38
  %74 = load i32, i32* %5, align 4
  %75 = add nsw i32 %74, 1
  store i32 %75, i32* %5, align 4
  br label %76

76:                                               ; preds = %73, %68
  br label %77

77:                                               ; preds = %76
  %78 = load i32, i32* %8, align 4
  %79 = add nsw i32 %78, 1
  store i32 %79, i32* %8, align 4
  br label %32

80:                                               ; preds = %32
  %81 = load i32*, i32** %6, align 8
  %82 = getelementptr inbounds i32, i32* %81, i64 0
  %83 = load i32, i32* %82, align 4
  %84 = call i32 (i8*, ...) @printf(i8* getelementptr inbounds ([3 x i8], [3 x i8]* @.str, i64 0, i64 0), i32 %83)
  store i32 1, i32* %10, align 4
  br label %85

85:                                               ; preds = %98, %80
  %86 = load i32, i32* %10, align 4
  %87 = load i32, i32* %2, align 4
  %88 = load i32, i32* %4, align 4
  %89 = sub nsw i32 %87, %88
  %90 = icmp slt i32 %86, %89
  br i1 %90, label %91, label %101

91:                                               ; preds = %85
  %92 = load i32*, i32** %6, align 8
  %93 = load i32, i32* %10, align 4
  %94 = sext i32 %93 to i64
  %95 = getelementptr inbounds i32, i32* %92, i64 %94
  %96 = load i32, i32* %95, align 4
  %97 = call i32 (i8*, ...) @printf(i8* getelementptr inbounds ([4 x i8], [4 x i8]* @.str.1, i64 0, i64 0), i32 %96)
  br label %98

98:                                               ; preds = %91
  %99 = load i32, i32* %10, align 4
  %100 = add nsw i32 %99, 1
  store i32 %100, i32* %10, align 4
  br label %85

101:                                              ; preds = %85
  %102 = call i32 @getchar()
  %103 = call i32 @getchar()
  %104 = load i32, i32* %1, align 4
  ret i32 %104
}

declare dso_local i32 @__isoc99_scanf(i8*, ...) #1

; Function Attrs: nounwind
declare dso_local noalias i8* @malloc(i64) #2

declare dso_local i32 @printf(i8*, ...) #1

declare dso_local i32 @getchar() #1


!llvm.module.flags = !{!0}
!llvm.ident = !{!1}

!0 = !{i32 1, !"wchar_size", i32 4}
!1 = !{!"clang version 10.0.0-4ubuntu1 "}
