; ModuleID = 'source-C-CXX/41/1231.c'
source_filename = "source-C-CXX/41/1231.c"
target datalayout = "e-m:e-p270:32:32-p271:32:32-p272:64:64-i64:64-f80:128-n8:16:32:64-S128"
target triple = "x86_64-pc-linux-gnu"

%struct._IO_FILE = type { i32, i8*, i8*, i8*, i8*, i8*, i8*, i8*, i8*, i8*, i8*, i8*, %struct._IO_marker*, %struct._IO_FILE*, i32, i32, i64, i16, i8, [1 x i8], i8*, i64, %struct._IO_codecvt*, %struct._IO_wide_data*, %struct._IO_FILE*, i8*, i64, i32, [20 x i8] }
%struct._IO_marker = type opaque
%struct._IO_codecvt = type opaque
%struct._IO_wide_data = type opaque

@.str = private unnamed_addr constant [3 x i8] c"%d\00", align 1
@.str.1 = private unnamed_addr constant [4 x i8] c" %d\00", align 1
@stdin = external local_unnamed_addr global %struct._IO_FILE*, align 8

; Function Attrs: nofree nounwind sspstrong uwtable
define dso_local i32 @main() local_unnamed_addr #0 {
  %1 = alloca i32, align 4
  %2 = alloca i32, align 4
  %3 = bitcast i32* %1 to i8*
  call void @llvm.lifetime.start.p0i8(i64 4, i8* nonnull %3) #5
  %4 = bitcast i32* %2 to i8*
  call void @llvm.lifetime.start.p0i8(i64 4, i8* nonnull %4) #5
  %5 = call i32 (i8*, ...) @__isoc99_scanf(i8* getelementptr inbounds ([3 x i8], [3 x i8]* @.str, i64 0, i64 0), i32* nonnull %1)
  %6 = load i32, i32* %1, align 4, !tbaa !5
  %7 = sext i32 %6 to i64
  %8 = shl nsw i64 %7, 2
  %9 = call noalias align 16 i8* @malloc(i64 %8) #5
  %10 = bitcast i8* %9 to i32*
  %11 = icmp sgt i32 %6, 0
  br i1 %11, label %17, label %12

12:                                               ; preds = %17, %0
  %13 = call i32 (i8*, ...) @__isoc99_scanf(i8* getelementptr inbounds ([3 x i8], [3 x i8]* @.str, i64 0, i64 0), i32* nonnull %2)
  %14 = load i32, i32* %1, align 4, !tbaa !5
  %15 = load i32, i32* %2, align 4
  %16 = icmp eq i32 %14, 0
  br i1 %16, label %25, label %32

17:                                               ; preds = %0, %17
  %18 = phi i64 [ %21, %17 ], [ 0, %0 ]
  %19 = getelementptr inbounds i32, i32* %10, i64 %18
  %20 = call i32 (i8*, ...) @__isoc99_scanf(i8* getelementptr inbounds ([3 x i8], [3 x i8]* @.str, i64 0, i64 0), i32* %19)
  %21 = add nuw nsw i64 %18, 1
  %22 = load i32, i32* %1, align 4, !tbaa !5
  %23 = sext i32 %22 to i64
  %24 = icmp slt i64 %21, %23
  br i1 %24, label %17, label %12, !llvm.loop !9

25:                                               ; preds = %122, %12
  %26 = phi i32 [ 0, %12 ], [ %124, %122 ]
  %27 = load i32, i32* %10, align 16, !tbaa !5
  %28 = call i32 (i8*, ...) @printf(i8* nonnull dereferenceable(1) getelementptr inbounds ([3 x i8], [3 x i8]* @.str, i64 0, i64 0), i32 %27)
  %29 = load i32, i32* %1, align 4, !tbaa !5
  %30 = sub nsw i32 %29, %26
  %31 = icmp sgt i32 %30, 1
  br i1 %31, label %134, label %129

32:                                               ; preds = %12, %122
  %33 = phi i32 [ %126, %122 ], [ 0, %12 ]
  %34 = phi i32 [ %124, %122 ], [ 0, %12 ]
  %35 = phi i32 [ %123, %122 ], [ 0, %12 ]
  %36 = sext i32 %33 to i64
  %37 = getelementptr inbounds i32, i32* %10, i64 %36
  %38 = load i32, i32* %37, align 4, !tbaa !5
  %39 = icmp eq i32 %38, %15
  br i1 %39, label %40, label %120

40:                                               ; preds = %32
  %41 = sub nsw i32 %14, %34
  %42 = icmp slt i32 %33, %41
  br i1 %42, label %43, label %110

43:                                               ; preds = %40
  %44 = sext i32 %41 to i64
  %45 = add nsw i64 %36, 1
  %46 = call i64 @llvm.smax.i64(i64 %44, i64 %45)
  %47 = sub i64 %46, %36
  %48 = icmp ult i64 %47, 8
  br i1 %48, label %108, label %49

49:                                               ; preds = %43
  %50 = and i64 %47, -8
  %51 = add i64 %50, %36
  %52 = add i64 %50, -8
  %53 = lshr exact i64 %52, 3
  %54 = add nuw nsw i64 %53, 1
  %55 = and i64 %54, 1
  %56 = icmp eq i64 %52, 0
  br i1 %56, label %90, label %57

57:                                               ; preds = %49
  %58 = and i64 %54, 4611686018427387902
  br label %59

59:                                               ; preds = %59, %57
  %60 = phi i64 [ 0, %57 ], [ %87, %59 ]
  %61 = phi i64 [ %58, %57 ], [ %88, %59 ]
  %62 = add i64 %60, %36
  %63 = add nsw i64 %62, 1
  %64 = getelementptr inbounds i32, i32* %10, i64 %63
  %65 = bitcast i32* %64 to <4 x i32>*
  %66 = load <4 x i32>, <4 x i32>* %65, align 4, !tbaa !5
  %67 = getelementptr inbounds i32, i32* %64, i64 4
  %68 = bitcast i32* %67 to <4 x i32>*
  %69 = load <4 x i32>, <4 x i32>* %68, align 4, !tbaa !5
  %70 = getelementptr inbounds i32, i32* %10, i64 %62
  %71 = bitcast i32* %70 to <4 x i32>*
  store <4 x i32> %66, <4 x i32>* %71, align 4, !tbaa !5
  %72 = getelementptr inbounds i32, i32* %70, i64 4
  %73 = bitcast i32* %72 to <4 x i32>*
  store <4 x i32> %69, <4 x i32>* %73, align 4, !tbaa !5
  %74 = or i64 %60, 8
  %75 = add i64 %74, %36
  %76 = add nsw i64 %75, 1
  %77 = getelementptr inbounds i32, i32* %10, i64 %76
  %78 = bitcast i32* %77 to <4 x i32>*
  %79 = load <4 x i32>, <4 x i32>* %78, align 4, !tbaa !5
  %80 = getelementptr inbounds i32, i32* %77, i64 4
  %81 = bitcast i32* %80 to <4 x i32>*
  %82 = load <4 x i32>, <4 x i32>* %81, align 4, !tbaa !5
  %83 = getelementptr inbounds i32, i32* %10, i64 %75
  %84 = bitcast i32* %83 to <4 x i32>*
  store <4 x i32> %79, <4 x i32>* %84, align 4, !tbaa !5
  %85 = getelementptr inbounds i32, i32* %83, i64 4
  %86 = bitcast i32* %85 to <4 x i32>*
  store <4 x i32> %82, <4 x i32>* %86, align 4, !tbaa !5
  %87 = add nuw i64 %60, 16
  %88 = add i64 %61, -2
  %89 = icmp eq i64 %88, 0
  br i1 %89, label %90, label %59, !llvm.loop !11

90:                                               ; preds = %59, %49
  %91 = phi i64 [ 0, %49 ], [ %87, %59 ]
  %92 = icmp eq i64 %55, 0
  br i1 %92, label %106, label %93

93:                                               ; preds = %90
  %94 = add i64 %91, %36
  %95 = add nsw i64 %94, 1
  %96 = getelementptr inbounds i32, i32* %10, i64 %95
  %97 = bitcast i32* %96 to <4 x i32>*
  %98 = load <4 x i32>, <4 x i32>* %97, align 4, !tbaa !5
  %99 = getelementptr inbounds i32, i32* %96, i64 4
  %100 = bitcast i32* %99 to <4 x i32>*
  %101 = load <4 x i32>, <4 x i32>* %100, align 4, !tbaa !5
  %102 = getelementptr inbounds i32, i32* %10, i64 %94
  %103 = bitcast i32* %102 to <4 x i32>*
  store <4 x i32> %98, <4 x i32>* %103, align 4, !tbaa !5
  %104 = getelementptr inbounds i32, i32* %102, i64 4
  %105 = bitcast i32* %104 to <4 x i32>*
  store <4 x i32> %101, <4 x i32>* %105, align 4, !tbaa !5
  br label %106

106:                                              ; preds = %90, %93
  %107 = icmp eq i64 %47, %50
  br i1 %107, label %110, label %108

108:                                              ; preds = %43, %106
  %109 = phi i64 [ %36, %43 ], [ %51, %106 ]
  br label %113

110:                                              ; preds = %113, %106, %40
  %111 = add nsw i32 %34, 1
  %112 = add nsw i32 %33, -1
  br label %122

113:                                              ; preds = %108, %113
  %114 = phi i64 [ %115, %113 ], [ %109, %108 ]
  %115 = add nsw i64 %114, 1
  %116 = getelementptr inbounds i32, i32* %10, i64 %115
  %117 = load i32, i32* %116, align 4, !tbaa !5
  %118 = getelementptr inbounds i32, i32* %10, i64 %114
  store i32 %117, i32* %118, align 4, !tbaa !5
  %119 = icmp slt i64 %115, %44
  br i1 %119, label %113, label %110, !llvm.loop !13

120:                                              ; preds = %32
  %121 = add nsw i32 %35, 1
  br label %122

122:                                              ; preds = %110, %120
  %123 = phi i32 [ %35, %110 ], [ %121, %120 ]
  %124 = phi i32 [ %111, %110 ], [ %34, %120 ]
  %125 = phi i32 [ %112, %110 ], [ %33, %120 ]
  %126 = add nsw i32 %125, 1
  %127 = add nsw i32 %124, %123
  %128 = icmp eq i32 %127, %14
  br i1 %128, label %25, label %32, !llvm.loop !15

129:                                              ; preds = %134, %25
  %130 = load %struct._IO_FILE*, %struct._IO_FILE** @stdin, align 8, !tbaa !16
  %131 = call i32 @getc(%struct._IO_FILE* %130) #5
  %132 = load %struct._IO_FILE*, %struct._IO_FILE** @stdin, align 8, !tbaa !16
  %133 = call i32 @getc(%struct._IO_FILE* %132) #5
  call void @llvm.lifetime.end.p0i8(i64 4, i8* nonnull %4) #5
  call void @llvm.lifetime.end.p0i8(i64 4, i8* nonnull %3) #5
  ret i32 0

134:                                              ; preds = %25, %134
  %135 = phi i64 [ %139, %134 ], [ 1, %25 ]
  %136 = getelementptr inbounds i32, i32* %10, i64 %135
  %137 = load i32, i32* %136, align 4, !tbaa !5
  %138 = call i32 (i8*, ...) @printf(i8* nonnull dereferenceable(1) getelementptr inbounds ([4 x i8], [4 x i8]* @.str.1, i64 0, i64 0), i32 %137)
  %139 = add nuw nsw i64 %135, 1
  %140 = load i32, i32* %1, align 4, !tbaa !5
  %141 = sub nsw i32 %140, %26
  %142 = sext i32 %141 to i64
  %143 = icmp slt i64 %139, %142
  br i1 %143, label %134, label %129, !llvm.loop !18
}

; Function Attrs: argmemonly mustprogress nofree nosync nounwind willreturn
declare void @llvm.lifetime.start.p0i8(i64 immarg, i8* nocapture) #1

; Function Attrs: nofree nounwind
declare noundef i32 @__isoc99_scanf(i8* nocapture noundef readonly, ...) local_unnamed_addr #2

; Function Attrs: inaccessiblememonly mustprogress nofree nounwind willreturn
declare noalias noundef align 16 i8* @malloc(i64 noundef) local_unnamed_addr #3

; Function Attrs: argmemonly mustprogress nofree nosync nounwind willreturn
declare void @llvm.lifetime.end.p0i8(i64 immarg, i8* nocapture) #1

; Function Attrs: nofree nounwind
declare noundef i32 @printf(i8* nocapture noundef readonly, ...) local_unnamed_addr #2

; Function Attrs: nofree nounwind
declare noundef i32 @getc(%struct._IO_FILE* nocapture noundef) local_unnamed_addr #2

; Function Attrs: nofree nosync nounwind readnone speculatable willreturn
declare i64 @llvm.smax.i64(i64, i64) #4


!llvm.module.flags = !{!0, !1, !2, !3}
!llvm.ident = !{!4}

!0 = !{i32 1, !"wchar_size", i32 4}
!1 = !{i32 7, !"PIC Level", i32 2}
!2 = !{i32 7, !"PIE Level", i32 2}
!3 = !{i32 7, !"uwtable", i32 1}
!4 = !{!"clang version 13.0.0"}
!5 = !{!6, !6, i64 0}
!6 = !{!"int", !7, i64 0}
!7 = !{!"omnipotent char", !8, i64 0}
!8 = !{!"Simple C/C++ TBAA"}
!9 = distinct !{!9, !10}
!10 = !{!"llvm.loop.mustprogress"}
!11 = distinct !{!11, !10, !12}
!12 = !{!"llvm.loop.isvectorized", i32 1}
!13 = distinct !{!13, !10, !14, !12}
!14 = !{!"llvm.loop.unroll.runtime.disable"}
!15 = distinct !{!15, !10}
!16 = !{!17, !17, i64 0}
!17 = !{!"any pointer", !7, i64 0}
!18 = distinct !{!18, !10}
